; Function Attrs: mustprogress nounwind uwtable
define void @_ZN10colvarbiasD0Ev(ptr noundef nonnull align 8 dereferenceable(312) %0) unnamed_addr #3 align 2 {
  tail call void @_ZN10colvarbiasD2Ev(ptr noundef nonnull align 8 dereferenceable(312) %0, ptr noundef nonnull @_ZTT10colvarbias) #23
  %2 = getelementptr inbounds i8, ptr %0, i64 632
  tail call void @_ZN10colvardepsD2Ev(ptr noundef nonnull align 8 dereferenceable(120) %2) #23
  %3 = getelementptr inbounds i8, ptr %0, i64 312
  tail call void @_ZN11colvarparseD2Ev(ptr noundef nonnull align 8 dereferenceable(320) %3) #23
  tail call void @_ZdlPv(ptr noundef nonnull %0) #24
  ret void
}